ESP32ULP GAS  ulp_pulse.ulp.pS 			page 1


   1              	       
   2              	       
   3              	       
   4              	  .bss
   5              	  .global pulse_edge
   6              	pulse_edge:
   7 0000 00000000 	  .long 0
   8              	  .global next_edge
   9              	next_edge:
  10 0004 00000000 	  .long 0
  11              	  .global debounce_counter
  12              	debounce_counter:
  13 0008 00000000 	  .long 0
  14              	  .global debounce_max_count
  15              	debounce_max_count:
  16 000c 00000000 	  .long 0
  17              	  .global pulse_res
  18              	pulse_res:
  19 0010 00000000 	  .long 0
  20              	  .global pulse_cur
  21              	pulse_cur:
  22 0014 00000000 	  .long 0
  23              	  .global pulse_min
  24              	pulse_min:
  25 0018 00000000 	  .long 0
  26              	  .global edge_count
  27              	edge_count:
  28 001c 00000000 	  .long 0
  29              	  .global io_number
  30              	io_number:
  31 0020 00000000 	  .long 0
  32              	  .text
  33              	  .global entry
  34              	entry:
  35 0000 00000080 	  jump pulse_tick
  36              	  .global read_now
  37              	read_now:
  38 0004 03008072 	  move r3, io_number
  39 0008 0F0000D0 	  ld r3, r3, 0
  40 000c 3C008070 	  move r0, r3
  41 0010 10000982 	  jumpr read_io_high, 16, ge
  42 0014 0901B82E 	  REG_RD ((((0x3ff48400 + 0x24)) - 0x3ff48000) / 4), ((14) + (16) - 1), (14)
  43 0018 3000C070 	  rsh r0, r0, r3
  44 001c 2C000080 	  jump read_done
  45              	read_io_high:
  46 0020 0901F82F 	  REG_RD ((((0x3ff48400 + 0x24)) - 0x3ff48000) / 4), ((14 + 16) + (2) - 1), (14 + 16)
  47 0024 0F012072 	  sub r3, r3, 16
  48 0028 3000C070 	  rsh r0, r0, r3
  49              	read_done:
  50 002c 10004072 	  and r0, r0, 1
  51 0030 03008072 	  move r3, next_edge
  52 0034 0F0000D0 	  ld r3, r3, 0
  53 0038 33000070 	  add r3, r0, r3
  54 003c 1F004072 	  and r3, r3, 1
  55 0040 00004080 	  jump changed, eq
  56 0044 03008072 	  move r3, debounce_max_count
  57 0048 02008072 	  move r2, debounce_counter
ESP32ULP GAS  ulp_pulse.ulp.pS 			page 2


  58 004c 0F0000D0 	  ld r3, r3, 0
  59 0050 0B000068 	  st r3, r2, 0
  60 0054 000000B0 	  halt
  61              	  .global changed
  62              	changed:
  63 0058 03008072 	  move r3, debounce_counter
  64 005c 0E0000D0 	  ld r2, r3, 0
  65 0060 0A000072 	  add r2, r2, 0
  66 0064 00004080 	  jump edge_detected, eq
  67 0068 1A002072 	  sub r2, r2, 1
  68 006c 0E000068 	  st r2, r3, 0
  69 0070 000000B0 	  halt
  70              	  .global edge_detected
  71              	edge_detected:
  72 0074 03008072 	  move r3, debounce_max_count
  73 0078 02008072 	  move r2, debounce_counter
  74 007c 0F0000D0 	  ld r3, r3, 0
  75 0080 0B000068 	  st r3, r2, 0
  76 0084 03008072 	  move r3, next_edge
  77 0088 0E0000D0 	  ld r2, r3, 0
  78 008c 1A000072 	  add r2, r2, 1
  79 0090 1A004072 	  and r2, r2, 1
  80 0094 0E000068 	  st r2, r3, 0
  81 0098 03008072 	  move r3, edge_count
  82 009c 0E0000D0 	  ld r2, r3, 0
  83 00a0 1A000072 	  add r2, r2, 1
  84 00a4 0E000068 	  st r2, r3, 0
  85 00a8 03008072 	  move r3, pulse_edge
  86 00ac 0F0000D0 	  ld r3, r3, 0
  87 00b0 33000070 	  add r3, r0, r3
  88 00b4 1F004072 	  and r3, r3, 1
  89 00b8 00004080 	  jump pulse_detected, eq
  90 00bc 000000B0 	  halt
  91              	  .global pulse_tick
  92              	pulse_tick:
  93 00c0 03008072 	  move r3, pulse_cur
  94 00c4 0E0000D0 	  ld r2, r3, 0
  95 00c8 1A000072 	  add r2, r2, 1
  96 00cc 0E000068 	  st r2, r3, 0
  97 00d0 00000080 	  jump read_now
  98              	  .global pulse_detected
  99              	pulse_detected:
 100 00d4 03008072 	  move r3, pulse_min
 101 00d8 02008072 	  move r2, pulse_cur
 102 00dc 0F0000D0 	  ld r3, r3, 0
 103 00e0 0A0000D0 	  ld r2, r2, 0
 104 00e4 3B002070 	  sub r3, r2, r3
 105 00e8 00008080 	  jump pulse_lower, ov
 106 00ec 03008072 	  move r3, pulse_min
 107 00f0 0E0000D0 	  ld r2, r3, 0
 108 00f4 0A000072 	  add r2, r2, 0
 109 00f8 00004080 	  jump pulse_lower, eq
 110 00fc 00000080 	  jump pulse_reset
 111              	  .global pulse_lower
 112              	pulse_lower:
 113 0100 03008072 	  move r3, pulse_cur
 114 0104 02008072 	  move r2, pulse_min
ESP32ULP GAS  ulp_pulse.ulp.pS 			page 3


 115 0108 0F0000D0 	  ld r3, r3, 0
 116 010c 0B000068 	  st r3, r2, 0
 117 0110 00000080 	  jump pulse_reset
 118              	  .global pulse_reset
 119              	pulse_reset:
 120 0114 03008072 	  move r3, pulse_res
 121 0118 02008072 	  move r2, pulse_cur
 122 011c 0F0000D0 	  ld r3, r3, 0
 123 0120 0B000068 	  st r3, r2, 0
 124 0124 000000B0 	  halt
